target datalayout = "e-m:e-p270:32:32-p271:32:32-p272:64:64-i64:64-f80:128-n8:16:32:64-S128"
target triple = "x86_64-pc-linux-gnu"

%struct.book = type { i32, [26 x i8], %struct.book* }

@.str = private unnamed_addr constant [6 x i8] c"%d %s\00", align 1
@.str.1 = private unnamed_addr constant [3 x i8] c"%d\00", align 1
@.str.2 = private unnamed_addr constant [7 x i8] c"%c\0A%d\0A\00", align 1
@.str.3 = private unnamed_addr constant [4 x i8] c"%d\0A\00", align 1

; Function Attrs: noinline nounwind uwtable
define dso_local %struct.book* @creat(i32 %0) #0 {
  %2 = alloca i32, align 4
  %3 = alloca i32, align 4
  %4 = alloca %struct.book*, align 8
  %5 = alloca %struct.book*, align 8
  %6 = alloca %struct.book*, align 8
  store i32 %0, i32* %2, align 4
  %7 = call noalias i8* @malloc(i64 100) #4
  %8 = bitcast i8* %7 to %struct.book*
  store %struct.book* %8, %struct.book** %6, align 8
  store %struct.book* %8, %struct.book** %5, align 8
  %9 = load %struct.book*, %struct.book** %5, align 8
  %10 = getelementptr inbounds %struct.book, %struct.book* %9, i32 0, i32 0
  %11 = load %struct.book*, %struct.book** %5, align 8
  %12 = getelementptr inbounds %struct.book, %struct.book* %11, i32 0, i32 1
  %13 = getelementptr inbounds [26 x i8], [26 x i8]* %12, i64 0, i64 0
  %14 = call i32 (i8*, ...) @__isoc99_scanf(i8* getelementptr inbounds ([6 x i8], [6 x i8]* @.str, i64 0, i64 0), i32* %10, i8* %13)
  store %struct.book* null, %struct.book** %4, align 8
  store i32 0, i32* %3, align 4
  br label %15

15:                                               ; preds = %38, %1
  %16 = load i32, i32* %3, align 4
  %17 = load i32, i32* %2, align 4
  %18 = sub nsw i32 %17, 1
  %19 = icmp slt i32 %16, %18
  br i1 %19, label %20, label %41

20:                                               ; preds = %15
  %21 = load i32, i32* %3, align 4
  %22 = icmp eq i32 %21, 0
  br i1 %22, label %23, label %25

23:                                               ; preds = %20
  %24 = load %struct.book*, %struct.book** %5, align 8
  store %struct.book* %24, %struct.book** %4, align 8
  br label %25

25:                                               ; preds = %23, %20
  %26 = call noalias i8* @malloc(i64 40) #4
  %27 = bitcast i8* %26 to %struct.book*
  store %struct.book* %27, %struct.book** %5, align 8
  %28 = load %struct.book*, %struct.book** %5, align 8
  %29 = getelementptr inbounds %struct.book, %struct.book* %28, i32 0, i32 0
  %30 = load %struct.book*, %struct.book** %5, align 8
  %31 = getelementptr inbounds %struct.book, %struct.book* %30, i32 0, i32 1
  %32 = getelementptr inbounds [26 x i8], [26 x i8]* %31, i64 0, i64 0
  %33 = call i32 (i8*, ...) @__isoc99_scanf(i8* getelementptr inbounds ([6 x i8], [6 x i8]* @.str, i64 0, i64 0), i32* %29, i8* %32)
  %34 = load %struct.book*, %struct.book** %5, align 8
  %35 = load %struct.book*, %struct.book** %6, align 8
  %36 = getelementptr inbounds %struct.book, %struct.book* %35, i32 0, i32 2
  store %struct.book* %34, %struct.book** %36, align 8
  %37 = load %struct.book*, %struct.book** %5, align 8
  store %struct.book* %37, %struct.book** %6, align 8
  br label %38

38:                                               ; preds = %25
  %39 = load i32, i32* %3, align 4
  %40 = add nsw i32 %39, 1
  store i32 %40, i32* %3, align 4
  br label %15

41:                                               ; preds = %15
  %42 = load %struct.book*, %struct.book** %6, align 8
  %43 = getelementptr inbounds %struct.book, %struct.book* %42, i32 0, i32 2
  store %struct.book* null, %struct.book** %43, align 8
  %44 = load %struct.book*, %struct.book** %4, align 8
  ret %struct.book* %44
}

; Function Attrs: noinline nounwind uwtable
define dso_local void @main() #0 {
  %1 = alloca i32, align 4
  %2 = alloca i32, align 4
  %3 = alloca [26 x i32], align 16
  %4 = alloca i32, align 4
  %5 = alloca i32, align 4
  %6 = alloca i32, align 4
  %7 = alloca i8, align 1
  %8 = alloca %struct.book*, align 8
  %9 = alloca %struct.book*, align 8
  %10 = bitcast [26 x i32]* %3 to i8*
  call void @llvm.memset.p0i8.i64(i8* align 16 %10, i8 0, i64 104, i1 false)
  store i32 0, i32* %4, align 4
  store i32 0, i32* %6, align 4
  %11 = call i32 (i8*, ...) @__isoc99_scanf(i8* getelementptr inbounds ([3 x i8], [3 x i8]* @.str.1, i64 0, i64 0), i32* %2)
  %12 = load i32, i32* %2, align 4
  %13 = call %struct.book* @creat(i32 %12)
  store %struct.book* %13, %struct.book** %8, align 8
  %14 = load %struct.book*, %struct.book** %8, align 8
  store %struct.book* %14, %struct.book** %9, align 8
  store i32 0, i32* %5, align 4
  br label %15

15:                                               ; preds = %62, %0
  %16 = load i32, i32* %5, align 4
  %17 = load i32, i32* %2, align 4
  %18 = icmp slt i32 %16, %17
  br i1 %18, label %19, label %65

19:                                               ; preds = %15
  store i32 0, i32* %1, align 4
  br label %20

20:                                               ; preds = %55, %19
  %21 = load %struct.book*, %struct.book** %8, align 8
  %22 = getelementptr inbounds %struct.book, %struct.book* %21, i32 0, i32 1
  %23 = getelementptr inbounds [26 x i8], [26 x i8]* %22, i64 0, i64 0
  %24 = load i32, i32* %1, align 4
  %25 = sext i32 %24 to i64
  %26 = getelementptr inbounds i8, i8* %23, i64 %25
  %27 = load i8, i8* %26, align 1
  %28 = sext i8 %27 to i32
  %29 = icmp ne i32 %28, 0
  br i1 %29, label %30, label %58

30:                                               ; preds = %20
  %31 = load %struct.book*, %struct.book** %8, align 8
  %32 = getelementptr inbounds %struct.book, %struct.book* %31, i32 0, i32 1
  %33 = getelementptr inbounds [26 x i8], [26 x i8]* %32, i64 0, i64 0
  %34 = load i32, i32* %1, align 4
  %35 = sext i32 %34 to i64
  %36 = getelementptr inbounds i8, i8* %33, i64 %35
  %37 = load i8, i8* %36, align 1
  %38 = sext i8 %37 to i32
  %39 = sub nsw i32 %38, 65
  %40 = sext i32 %39 to i64
  %41 = getelementptr inbounds [26 x i32], [26 x i32]* %3, i64 0, i64 %40
  %42 = load i32, i32* %41, align 4
  %43 = add nsw i32 %42, 1
  %44 = load %struct.book*, %struct.book** %8, align 8
  %45 = getelementptr inbounds %struct.book, %struct.book* %44, i32 0, i32 1
  %46 = getelementptr inbounds [26 x i8], [26 x i8]* %45, i64 0, i64 0
  %47 = load i32, i32* %1, align 4
  %48 = sext i32 %47 to i64
  %49 = getelementptr inbounds i8, i8* %46, i64 %48
  %50 = load i8, i8* %49, align 1
  %51 = sext i8 %50 to i32
  %52 = sub nsw i32 %51, 65
  %53 = sext i32 %52 to i64
  %54 = getelementptr inbounds [26 x i32], [26 x i32]* %3, i64 0, i64 %53
  store i32 %43, i32* %54, align 4
  br label %55

55:                                               ; preds = %30
  %56 = load i32, i32* %1, align 4
  %57 = add nsw i32 %56, 1
  store i32 %57, i32* %1, align 4
  br label %20

58:                                               ; preds = %20
  %59 = load %struct.book*, %struct.book** %8, align 8
  %60 = getelementptr inbounds %struct.book, %struct.book* %59, i32 0, i32 2
  %61 = load %struct.book*, %struct.book** %60, align 8
  store %struct.book* %61, %struct.book** %8, align 8
  br label %62

62:                                               ; preds = %58
  %63 = load i32, i32* %5, align 4
  %64 = add nsw i32 %63, 1
  store i32 %64, i32* %5, align 4
  br label %15

65:                                               ; preds = %15
  store i32 0, i32* %1, align 4
  br label %66

66:                                               ; preds = %83, %65
  %67 = load i32, i32* %1, align 4
  %68 = icmp slt i32 %67, 26
  br i1 %68, label %69, label %86

69:                                               ; preds = %66
  %70 = load i32, i32* %1, align 4
  %71 = sext i32 %70 to i64
  %72 = getelementptr inbounds [26 x i32], [26 x i32]* %3, i64 0, i64 %71
  %73 = load i32, i32* %72, align 4
  %74 = load i32, i32* %4, align 4
  %75 = icmp sgt i32 %73, %74
  br i1 %75, label %76, label %82

76:                                               ; preds = %69
  %77 = load i32, i32* %1, align 4
  %78 = sext i32 %77 to i64
  %79 = getelementptr inbounds [26 x i32], [26 x i32]* %3, i64 0, i64 %78
  %80 = load i32, i32* %79, align 4
  store i32 %80, i32* %4, align 4
  %81 = load i32, i32* %1, align 4
  store i32 %81, i32* %6, align 4
  br label %82

82:                                               ; preds = %76, %69
  br label %83

83:                                               ; preds = %82
  %84 = load i32, i32* %1, align 4
  %85 = add nsw i32 %84, 1
  store i32 %85, i32* %1, align 4
  br label %66

86:                                               ; preds = %66
  %87 = load i32, i32* %6, align 4
  %88 = add nsw i32 %87, 65
  %89 = load i32, i32* %4, align 4
  %90 = call i32 (i8*, ...) @printf(i8* getelementptr inbounds ([7 x i8], [7 x i8]* @.str.2, i64 0, i64 0), i32 %88, i32 %89)
  %91 = load i32, i32* %6, align 4
  %92 = add nsw i32 %91, 65
  %93 = trunc i32 %92 to i8
  store i8 %93, i8* %7, align 1
  br label %94

94:                                               ; preds = %129, %86
  %95 = load %struct.book*, %struct.book** %9, align 8
  %96 = icmp ne %struct.book* %95, null
  br i1 %96, label %97, label %133

97:                                               ; preds = %94
  store i32 0, i32* %1, align 4
  br label %98

98:                                               ; preds = %126, %97
  %99 = load %struct.book*, %struct.book** %9, align 8
  %100 = getelementptr inbounds %struct.book, %struct.book* %99, i32 0, i32 1
  %101 = getelementptr inbounds [26 x i8], [26 x i8]* %100, i64 0, i64 0
  %102 = load i32, i32* %1, align 4
  %103 = sext i32 %102 to i64
  %104 = getelementptr inbounds i8, i8* %101, i64 %103
  %105 = load i8, i8* %104, align 1
  %106 = sext i8 %105 to i32
  %107 = icmp ne i32 %106, 0
  br i1 %107, label %108, label %129

108:                                              ; preds = %98
  %109 = load %struct.book*, %struct.book** %9, align 8
  %110 = getelementptr inbounds %struct.book, %struct.book* %109, i32 0, i32 1
  %111 = getelementptr inbounds [26 x i8], [26 x i8]* %110, i64 0, i64 0
  %112 = load i32, i32* %1, align 4
  %113 = sext i32 %112 to i64
  %114 = getelementptr inbounds i8, i8* %111, i64 %113
  %115 = load i8, i8* %114, align 1
  %116 = sext i8 %115 to i32
  %117 = load i8, i8* %7, align 1
  %118 = sext i8 %117 to i32
  %119 = icmp eq i32 %116, %118
  br i1 %119, label %120, label %125

120:                                              ; preds = %108
  %121 = load %struct.book*, %struct.book** %9, align 8
  %122 = getelementptr inbounds %struct.book, %struct.book* %121, i32 0, i32 0
  %123 = load i32, i32* %122, align 8
  %124 = call i32 (i8*, ...) @printf(i8* getelementptr inbounds ([4 x i8], [4 x i8]* @.str.3, i64 0, i64 0), i32 %123)
  br label %129

125:                                              ; preds = %108
  br label %126

126:                                              ; preds = %125
  %127 = load i32, i32* %1, align 4
  %128 = add nsw i32 %127, 1
  store i32 %128, i32* %1, align 4
  br label %98

129:                                              ; preds = %120, %98
  %130 = load %struct.book*, %struct.book** %9, align 8
  %131 = getelementptr inbounds %struct.book, %struct.book* %130, i32 0, i32 2
  %132 = load %struct.book*, %struct.book** %131, align 8
  store %struct.book* %132, %struct.book** %9, align 8
  br label %94

133:                                              ; preds = %94
  ret void
}